#include <math.h>
#include <stdio.h>
#include <stdlib.h>
#include <string.h>

int main()
{
    int i,j,k,n,l,sum;
    int a[100001];
    scanf("%d",&n);
    for(i=0;i<n;i++)
    {
                    scanf("%d",&a[i]);
    }
    scanf("%d",&k);
    sum=0;
    for(i=0;i<n;i++)
    {
                    if(a[i]==k)
                    {
                               sum++;
                    }
    }
    for(i=0;i<n;i++)
    {
                    for(j=1;j<=100;j++)
                    {
                                         if(a[i]==k)
                                         {
                                                    for(l=i;l<n-1;l++)
                                                    {
                                                                    a[l]=a[l+1];
                                                    }
                                         }
                    }
    }
    if(a[0]!=k)
    {
               printf("%d",a[0]);
    }
    for(i=1;i<n-sum;i++)
    {
                       printf(" %d",a[i]);
    }
    return 0;
}