; ModuleID = '42/1501.c'
source_filename = "42/1501.c"
target datalayout = "e-m:e-p270:32:32-p271:32:32-p272:64:64-i64:64-f80:128-n8:16:32:64-S128"
target triple = "x86_64-pc-linux-gnu"

@.str = private unnamed_addr constant [3 x i8] c"%d\00", align 1
@.str.1 = private unnamed_addr constant [4 x i8] c" %d\00", align 1

; Function Attrs: noinline nounwind uwtable
define dso_local i32 @main() #0 {
  %1 = alloca i32, align 4
  %2 = alloca i32, align 4
  %3 = alloca i32, align 4
  %4 = alloca i32, align 4
  %5 = alloca i32, align 4
  %6 = alloca i32, align 4
  %7 = alloca i32, align 4
  %8 = alloca [100001 x i32], align 16
  store i32 0, i32* %1, align 4
  %9 = call i32 (i8*, ...) @__isoc99_scanf(i8* getelementptr inbounds ([3 x i8], [3 x i8]* @.str, i64 0, i64 0), i32* %5)
  store i32 0, i32* %2, align 4
  br label %10

10:                                               ; preds = %19, %0
  %11 = load i32, i32* %2, align 4
  %12 = load i32, i32* %5, align 4
  %13 = icmp slt i32 %11, %12
  br i1 %13, label %14, label %22

14:                                               ; preds = %10
  %15 = load i32, i32* %2, align 4
  %16 = sext i32 %15 to i64
  %17 = getelementptr inbounds [100001 x i32], [100001 x i32]* %8, i64 0, i64 %16
  %18 = call i32 (i8*, ...) @__isoc99_scanf(i8* getelementptr inbounds ([3 x i8], [3 x i8]* @.str, i64 0, i64 0), i32* %17)
  br label %19

19:                                               ; preds = %14
  %20 = load i32, i32* %2, align 4
  %21 = add nsw i32 %20, 1
  store i32 %21, i32* %2, align 4
  br label %10

22:                                               ; preds = %10
  %23 = call i32 (i8*, ...) @__isoc99_scanf(i8* getelementptr inbounds ([3 x i8], [3 x i8]* @.str, i64 0, i64 0), i32* %4)
  store i32 0, i32* %7, align 4
  store i32 0, i32* %2, align 4
  br label %24

24:                                               ; preds = %39, %22
  %25 = load i32, i32* %2, align 4
  %26 = load i32, i32* %5, align 4
  %27 = icmp slt i32 %25, %26
  br i1 %27, label %28, label %42

28:                                               ; preds = %24
  %29 = load i32, i32* %2, align 4
  %30 = sext i32 %29 to i64
  %31 = getelementptr inbounds [100001 x i32], [100001 x i32]* %8, i64 0, i64 %30
  %32 = load i32, i32* %31, align 4
  %33 = load i32, i32* %4, align 4
  %34 = icmp eq i32 %32, %33
  br i1 %34, label %35, label %38

35:                                               ; preds = %28
  %36 = load i32, i32* %7, align 4
  %37 = add nsw i32 %36, 1
  store i32 %37, i32* %7, align 4
  br label %38

38:                                               ; preds = %35, %28
  br label %39

39:                                               ; preds = %38
  %40 = load i32, i32* %2, align 4
  %41 = add nsw i32 %40, 1
  store i32 %41, i32* %2, align 4
  br label %24

42:                                               ; preds = %24
  store i32 0, i32* %2, align 4
  br label %43

43:                                               ; preds = %83, %42
  %44 = load i32, i32* %2, align 4
  %45 = load i32, i32* %5, align 4
  %46 = icmp slt i32 %44, %45
  br i1 %46, label %47, label %86

47:                                               ; preds = %43
  store i32 1, i32* %3, align 4
  br label %48

48:                                               ; preds = %79, %47
  %49 = load i32, i32* %3, align 4
  %50 = icmp sle i32 %49, 100
  br i1 %50, label %51, label %82

51:                                               ; preds = %48
  %52 = load i32, i32* %2, align 4
  %53 = sext i32 %52 to i64
  %54 = getelementptr inbounds [100001 x i32], [100001 x i32]* %8, i64 0, i64 %53
  %55 = load i32, i32* %54, align 4
  %56 = load i32, i32* %4, align 4
  %57 = icmp eq i32 %55, %56
  br i1 %57, label %58, label %78

58:                                               ; preds = %51
  %59 = load i32, i32* %2, align 4
  store i32 %59, i32* %6, align 4
  br label %60

60:                                               ; preds = %74, %58
  %61 = load i32, i32* %6, align 4
  %62 = load i32, i32* %5, align 4
  %63 = sub nsw i32 %62, 1
  %64 = icmp slt i32 %61, %63
  br i1 %64, label %65, label %77

65:                                               ; preds = %60
  %66 = load i32, i32* %6, align 4
  %67 = add nsw i32 %66, 1
  %68 = sext i32 %67 to i64
  %69 = getelementptr inbounds [100001 x i32], [100001 x i32]* %8, i64 0, i64 %68
  %70 = load i32, i32* %69, align 4
  %71 = load i32, i32* %6, align 4
  %72 = sext i32 %71 to i64
  %73 = getelementptr inbounds [100001 x i32], [100001 x i32]* %8, i64 0, i64 %72
  store i32 %70, i32* %73, align 4
  br label %74

74:                                               ; preds = %65
  %75 = load i32, i32* %6, align 4
  %76 = add nsw i32 %75, 1
  store i32 %76, i32* %6, align 4
  br label %60

77:                                               ; preds = %60
  br label %78

78:                                               ; preds = %77, %51
  br label %79

79:                                               ; preds = %78
  %80 = load i32, i32* %3, align 4
  %81 = add nsw i32 %80, 1
  store i32 %81, i32* %3, align 4
  br label %48

82:                                               ; preds = %48
  br label %83

83:                                               ; preds = %82
  %84 = load i32, i32* %2, align 4
  %85 = add nsw i32 %84, 1
  store i32 %85, i32* %2, align 4
  br label %43

86:                                               ; preds = %43
  %87 = getelementptr inbounds [100001 x i32], [100001 x i32]* %8, i64 0, i64 0
  %88 = load i32, i32* %87, align 16
  %89 = load i32, i32* %4, align 4
  %90 = icmp ne i32 %88, %89
  br i1 %90, label %91, label %95

91:                                               ; preds = %86
  %92 = getelementptr inbounds [100001 x i32], [100001 x i32]* %8, i64 0, i64 0
  %93 = load i32, i32* %92, align 16
  %94 = call i32 (i8*, ...) @printf(i8* getelementptr inbounds ([3 x i8], [3 x i8]* @.str, i64 0, i64 0), i32 %93)
  br label %95

95:                                               ; preds = %91, %86
  store i32 1, i32* %2, align 4
  br label %96

96:                                               ; preds = %108, %95
  %97 = load i32, i32* %2, align 4
  %98 = load i32, i32* %5, align 4
  %99 = load i32, i32* %7, align 4
  %100 = sub nsw i32 %98, %99
  %101 = icmp slt i32 %97, %100
  br i1 %101, label %102, label %111

102:                                              ; preds = %96
  %103 = load i32, i32* %2, align 4
  %104 = sext i32 %103 to i64
  %105 = getelementptr inbounds [100001 x i32], [100001 x i32]* %8, i64 0, i64 %104
  %106 = load i32, i32* %105, align 4
  %107 = call i32 (i8*, ...) @printf(i8* getelementptr inbounds ([4 x i8], [4 x i8]* @.str.1, i64 0, i64 0), i32 %106)
  br label %108

108:                                              ; preds = %102
  %109 = load i32, i32* %2, align 4
  %110 = add nsw i32 %109, 1
  store i32 %110, i32* %2, align 4
  br label %96

111:                                              ; preds = %96
  ret i32 0
}

declare dso_local i32 @__isoc99_scanf(i8*, ...) #1

declare dso_local i32 @printf(i8*, ...) #1


!llvm.module.flags = !{!0}
!llvm.ident = !{!1}

!0 = !{i32 1, !"wchar_size", i32 4}
!1 = !{!"clang version 10.0.0-4ubuntu1 "}
